(lp0
(S'cppflags'
p1
ccopy_reg
_reconstructor
p2
(cino.utils
SpaceList
p3
c__builtin__
list
p4
(lp5
S'-mmcu=atmega328p'
p6
aS'-DF_CPU=16000000L'
p7
aS'-DARDUINO=105'
p8
aS'-I/Applications/Arduino.app/Contents/Resources/Java/hardware/arduino/cores/arduino'
p9
aS'-ffunction-sections'
p10
aS'-fdata-sections'
p11
aS'-g'
p12
aS'-Os'
p13
aS'-w'
p14
aS'-I/Applications/Arduino.app/Contents/Resources/Java/hardware/arduino/variants/standard'
p15
aS'-I/Applications/Arduino.app/Contents/Resources/Java/hardware/arduino/cores/arduino'
p16
aS'-I/Applications/Arduino.app/Contents/Resources/Java/hardware/arduino/cores/arduino/avr-libc'
p17
atp18
Rp19
tp20
a(S'version.txt'
p21
S'/Applications/Arduino.app/Contents/Resources/Java/lib/version.txt'
p22
tp23
a(S'used_libs'
p24
(lp25
S'/Applications/Arduino.app/Contents/Resources/Java/hardware/arduino/cores/arduino'
p26
atp27
a(S'cxx'
p28
S'/Applications/Arduino.app/Contents/Resources/Java/hardware/tools/avr/bin/avr-g++'
p29
tp30
a(S'make'
p31
S'/Applications/Arduino.app/Contents/Resources/Java/hardware/tools/avr/bin/make'
p32
tp33
a(S'cflags'
p34
g2
(g3
g4
(lp35
tp36
Rp37
tp38
a(S'build_dir'
p39
S'.build/uno'
p40
tp41
a(S'arduino_core_dir'
p42
g26
tp43
a(S'boards.txt'
p44
S'/Applications/Arduino.app/Contents/Resources/Java/hardware/arduino/boards.txt'
p45
tp46
a(S'cxxflags'
p47
g2
(g3
g4
(lp48
S'-fno-exceptions'
p49
atp50
Rp51
tp52
a(S'arduino_variants_dir'
p53
S'/Applications/Arduino.app/Contents/Resources/Java/hardware/arduino/variants'
p54
tp55
a(S'ar'
p56
S'/Applications/Arduino.app/Contents/Resources/Java/hardware/tools/avr/bin/avr-ar'
p57
tp58
a(S'names'
p59
(dp60
S'cpp'
p61
S'%s.cpp'
p62
sS'obj'
p63
S'%s.o'
p64
sS'deps'
p65
S'%s.d'
p66
sS'lib'
p67
S'lib%s.a'
p68
stp69
a(S'deps'
p70
g2
(g3
g4
(lp71
S'.build/uno/src/dependencies.d'
p72
aS'.build/uno/arduino/dependencies.d'
p73
atp74
Rp75
tp76
a(S'ldflags'
p77
g2
(g3
g4
(lp78
g6
aS'-Wl,-Os'
p79
aS'-Wl,--gc-sections'
p80
atp81
Rp82
tp83
a(S'arduino_libraries_dir'
p84
S'/Applications/Arduino.app/Contents/Resources/Java/libraries'
p85
tp86
a(S'arduino_lib_version'
p87
g2
(cino.environment
Version
p88
c__builtin__
tuple
p89
(I1
I0
I5
tp90
tp91
Rp92
tp93
a(S'objcopy'
p94
S'/Applications/Arduino.app/Contents/Resources/Java/hardware/tools/avr/bin/avr-objcopy'
p95
tp96
a(S'board_models'
p97
cino.environment
BoardModels
p98
((lp99
(lp100
S'uno'
p101
a(dp102
S'bootloader'
p103
(dp104
S'extended_fuses'
p105
S'0x05'
p106
sS'high_fuses'
p107
S'0xde'
p108
sS'low_fuses'
p109
S'0xff'
p110
sS'lock_bits'
p111
S'0x0F'
p112
sS'file'
p113
S'optiboot_atmega328.hex'
p114
sS'path'
p115
S'optiboot'
p116
sS'unlock_bits'
p117
S'0x3F'
p118
ssS'upload'
p119
(dp120
S'protocol'
p121
S'arduino'
p122
sS'maximum_size'
p123
S'32256'
p124
sS'speed'
p125
S'115200'
p126
ssS'build'
p127
(dp128
S'core'
p129
S'arduino'
p130
sS'mcu'
p131
S'atmega328p'
p132
sS'f_cpu'
p133
S'16000000L'
p134
sS'variant'
p135
S'standard'
p136
ssS'name'
p137
S'Arduino Uno'
p138
saa(lp139
S'atmega328'
p140
a(dp141
S'bootloader'
p142
(dp143
S'extended_fuses'
p144
S'0x05'
p145
sS'high_fuses'
p146
S'0xDA'
p147
sS'low_fuses'
p148
S'0xFF'
p149
sS'lock_bits'
p150
S'0x0F'
p151
sS'file'
p152
S'ATmegaBOOT_168_atmega328.hex'
p153
sS'path'
p154
S'atmega'
p155
sS'unlock_bits'
p156
S'0x3F'
p157
ssS'upload'
p158
(dp159
S'protocol'
p160
S'arduino'
p161
sS'maximum_size'
p162
S'30720'
p163
sS'speed'
p164
S'57600'
p165
ssS'build'
p166
(dp167
S'core'
p168
S'arduino'
p169
sS'mcu'
p170
S'atmega328p'
p171
sS'f_cpu'
p172
S'16000000L'
p173
sS'variant'
p174
S'standard'
p175
ssS'name'
p176
S'Arduino Duemilanove w/ ATmega328'
p177
saa(lp178
S'diecimila'
p179
a(dp180
S'bootloader'
p181
(dp182
S'extended_fuses'
p183
S'0x00'
p184
sS'high_fuses'
p185
S'0xdd'
p186
sS'low_fuses'
p187
S'0xff'
p188
sS'lock_bits'
p189
S'0x0F'
p190
sS'file'
p191
S'ATmegaBOOT_168_diecimila.hex'
p192
sS'path'
p193
S'atmega'
p194
sS'unlock_bits'
p195
S'0x3F'
p196
ssS'upload'
p197
(dp198
S'protocol'
p199
S'arduino'
p200
sS'maximum_size'
p201
S'14336'
p202
sS'speed'
p203
S'19200'
p204
ssS'build'
p205
(dp206
S'core'
p207
S'arduino'
p208
sS'mcu'
p209
S'atmega168'
p210
sS'f_cpu'
p211
S'16000000L'
p212
sS'variant'
p213
S'standard'
p214
ssS'name'
p215
S'Arduino Diecimila or Duemilanove w/ ATmega168'
p216
saa(lp217
S'nano328'
p218
a(dp219
S'bootloader'
p220
(dp221
S'extended_fuses'
p222
S'0x05'
p223
sS'high_fuses'
p224
S'0xDA'
p225
sS'low_fuses'
p226
S'0xFF'
p227
sS'lock_bits'
p228
S'0x0F'
p229
sS'file'
p230
S'ATmegaBOOT_168_atmega328.hex'
p231
sS'path'
p232
S'atmega'
p233
sS'unlock_bits'
p234
S'0x3F'
p235
ssS'upload'
p236
(dp237
S'protocol'
p238
S'arduino'
p239
sS'maximum_size'
p240
S'30720'
p241
sS'speed'
p242
S'57600'
p243
ssS'build'
p244
(dp245
S'core'
p246
S'arduino'
p247
sS'mcu'
p248
S'atmega328p'
p249
sS'f_cpu'
p250
S'16000000L'
p251
sS'variant'
p252
S'eightanaloginputs'
p253
ssS'name'
p254
S'Arduino Nano w/ ATmega328'
p255
saa(lp256
S'nano'
p257
a(dp258
S'bootloader'
p259
(dp260
S'extended_fuses'
p261
S'0x00'
p262
sS'high_fuses'
p263
S'0xdd'
p264
sS'low_fuses'
p265
S'0xff'
p266
sS'lock_bits'
p267
S'0x0F'
p268
sS'file'
p269
S'ATmegaBOOT_168_diecimila.hex'
p270
sS'path'
p271
S'atmega'
p272
sS'unlock_bits'
p273
S'0x3F'
p274
ssS'upload'
p275
(dp276
S'protocol'
p277
S'arduino'
p278
sS'maximum_size'
p279
S'14336'
p280
sS'speed'
p281
S'19200'
p282
ssS'build'
p283
(dp284
S'core'
p285
S'arduino'
p286
sS'mcu'
p287
S'atmega168'
p288
sS'f_cpu'
p289
S'16000000L'
p290
sS'variant'
p291
S'eightanaloginputs'
p292
ssS'name'
p293
S'Arduino Nano w/ ATmega168'
p294
saa(lp295
S'mega2560'
p296
a(dp297
S'bootloader'
p298
(dp299
S'extended_fuses'
p300
S'0xFD'
p301
sS'high_fuses'
p302
S'0xD8'
p303
sS'low_fuses'
p304
S'0xFF'
p305
sS'lock_bits'
p306
S'0x0F'
p307
sS'file'
p308
S'stk500boot_v2_mega2560.hex'
p309
sS'path'
p310
S'stk500v2'
p311
sS'unlock_bits'
p312
S'0x3F'
p313
ssS'upload'
p314
(dp315
S'protocol'
p316
S'wiring'
p317
sS'maximum_size'
p318
S'258048'
p319
sS'speed'
p320
S'115200'
p321
ssS'build'
p322
(dp323
S'core'
p324
S'arduino'
p325
sS'mcu'
p326
S'atmega2560'
p327
sS'f_cpu'
p328
S'16000000L'
p329
sS'variant'
p330
S'mega'
p331
ssS'name'
p332
S'Arduino Mega 2560 or Mega ADK'
p333
saa(lp334
S'mega'
p335
a(dp336
S'bootloader'
p337
(dp338
S'extended_fuses'
p339
S'0xF5'
p340
sS'high_fuses'
p341
S'0xDA'
p342
sS'low_fuses'
p343
S'0xFF'
p344
sS'lock_bits'
p345
S'0x0F'
p346
sS'file'
p347
S'ATmegaBOOT_168_atmega1280.hex'
p348
sS'path'
p349
S'atmega'
p350
sS'unlock_bits'
p351
S'0x3F'
p352
ssS'upload'
p353
(dp354
S'protocol'
p355
S'arduino'
p356
sS'maximum_size'
p357
S'126976'
p358
sS'speed'
p359
S'57600'
p360
ssS'build'
p361
(dp362
S'core'
p363
S'arduino'
p364
sS'mcu'
p365
S'atmega1280'
p366
sS'f_cpu'
p367
S'16000000L'
p368
sS'variant'
p369
S'mega'
p370
ssS'name'
p371
S'Arduino Mega (ATmega1280)'
p372
saa(lp373
S'leonardo'
p374
a(dp375
S'bootloader'
p376
(dp377
S'extended_fuses'
p378
S'0xcb'
p379
sS'high_fuses'
p380
S'0xd8'
p381
sS'low_fuses'
p382
S'0xff'
p383
sS'lock_bits'
p384
S'0x2F'
p385
sS'file'
p386
S'Caterina-Leonardo.hex'
p387
sS'path'
p388
S'caterina'
p389
sS'unlock_bits'
p390
S'0x3F'
p391
ssS'upload'
p392
(dp393
S'protocol'
p394
S'avr109'
p395
sS'maximum_size'
p396
S'28672'
p397
sS'speed'
p398
S'57600'
p399
sS'disable_flushing'
p400
S'true'
p401
ssS'build'
p402
(dp403
S'core'
p404
S'arduino'
p405
sS'f_cpu'
p406
S'16000000L'
p407
sS'vid'
p408
S'0x2341'
p409
sS'pid'
p410
S'0x8036'
p411
sS'variant'
p412
S'leonardo'
p413
sS'mcu'
p414
S'atmega32u4'
p415
ssS'name'
p416
S'Arduino Leonardo'
p417
saa(lp418
S'esplora'
p419
a(dp420
S'bootloader'
p421
(dp422
S'extended_fuses'
p423
S'0xcb'
p424
sS'high_fuses'
p425
S'0xd8'
p426
sS'low_fuses'
p427
S'0xff'
p428
sS'lock_bits'
p429
S'0x2F'
p430
sS'file'
p431
S'Caterina-Esplora.hex'
p432
sS'path'
p433
S'caterina'
p434
sS'unlock_bits'
p435
S'0x3F'
p436
ssS'upload'
p437
(dp438
S'protocol'
p439
S'avr109'
p440
sS'maximum_size'
p441
S'28672'
p442
sS'speed'
p443
S'57600'
p444
sS'disable_flushing'
p445
S'true'
p446
ssS'build'
p447
(dp448
S'core'
p449
S'arduino'
p450
sS'f_cpu'
p451
S'16000000L'
p452
sS'vid'
p453
S'0x2341'
p454
sS'pid'
p455
S'0x803C'
p456
sS'variant'
p457
S'leonardo'
p458
sS'mcu'
p459
S'atmega32u4'
p460
ssS'name'
p461
S'Arduino Esplora'
p462
saa(lp463
S'micro'
p464
a(dp465
S'bootloader'
p466
(dp467
S'extended_fuses'
p468
S'0xcb'
p469
sS'high_fuses'
p470
S'0xd8'
p471
sS'low_fuses'
p472
S'0xff'
p473
sS'lock_bits'
p474
S'0x2F'
p475
sS'file'
p476
S'Caterina-Micro.hex'
p477
sS'path'
p478
S'caterina'
p479
sS'unlock_bits'
p480
S'0x3F'
p481
ssS'upload'
p482
(dp483
S'protocol'
p484
S'avr109'
p485
sS'maximum_size'
p486
S'28672'
p487
sS'speed'
p488
S'57600'
p489
sS'disable_flushing'
p490
S'true'
p491
ssS'build'
p492
(dp493
S'core'
p494
S'arduino'
p495
sS'f_cpu'
p496
S'16000000L'
p497
sS'vid'
p498
S'0x2341'
p499
sS'pid'
p500
S'0x8037'
p501
sS'variant'
p502
S'micro'
p503
sS'mcu'
p504
S'atmega32u4'
p505
ssS'name'
p506
S'Arduino Micro'
p507
saa(lp508
S'mini328'
p509
a(dp510
S'bootloader'
p511
(dp512
S'extended_fuses'
p513
S'0x05'
p514
sS'high_fuses'
p515
S'0xd8'
p516
sS'low_fuses'
p517
S'0xff'
p518
sS'lock_bits'
p519
S'0x0F'
p520
sS'file'
p521
S'optiboot_atmega328-Mini.hex'
p522
sS'path'
p523
S'optiboot'
p524
sS'unlock_bits'
p525
S'0x3F'
p526
ssS'upload'
p527
(dp528
S'protocol'
p529
S'arduino'
p530
sS'maximum_size'
p531
S'28672'
p532
sS'speed'
p533
S'115200'
p534
ssS'build'
p535
(dp536
S'core'
p537
S'arduino'
p538
sS'mcu'
p539
S'atmega328p'
p540
sS'f_cpu'
p541
S'16000000L'
p542
sS'variant'
p543
S'eightanaloginputs'
p544
ssS'name'
p545
S'Arduino Mini w/ ATmega328'
p546
saa(lp547
S'mini'
p548
a(dp549
S'bootloader'
p550
(dp551
S'extended_fuses'
p552
S'0x00'
p553
sS'high_fuses'
p554
S'0xdd'
p555
sS'low_fuses'
p556
S'0xff'
p557
sS'lock_bits'
p558
S'0x0F'
p559
sS'file'
p560
S'ATmegaBOOT_168_ng.hex'
p561
sS'path'
p562
S'atmega'
p563
sS'unlock_bits'
p564
S'0x3F'
p565
ssS'upload'
p566
(dp567
S'protocol'
p568
S'arduino'
p569
sS'maximum_size'
p570
S'14336'
p571
sS'speed'
p572
S'19200'
p573
ssS'build'
p574
(dp575
S'core'
p576
S'arduino'
p577
sS'mcu'
p578
S'atmega168'
p579
sS'f_cpu'
p580
S'16000000L'
p581
sS'variant'
p582
S'eightanaloginputs'
p583
ssS'name'
p584
S'Arduino Mini w/ ATmega168'
p585
saa(lp586
S'ethernet'
p587
a(dp588
S'bootloader'
p589
(dp590
S'extended_fuses'
p591
S'0x05'
p592
sS'high_fuses'
p593
S'0xde'
p594
sS'low_fuses'
p595
S'0xff'
p596
sS'lock_bits'
p597
S'0x0F'
p598
sS'file'
p599
S'optiboot_atmega328.hex'
p600
sS'path'
p601
S'optiboot'
p602
sS'unlock_bits'
p603
S'0x3F'
p604
ssS'upload'
p605
(dp606
S'protocol'
p607
S'arduino'
p608
sS'maximum_size'
p609
S'32256'
p610
sS'speed'
p611
S'115200'
p612
ssS'build'
p613
(dp614
S'variant'
p615
S'standard'
p616
sS'mcu'
p617
S'atmega328p'
p618
sS'f_cpu'
p619
S'16000000L'
p620
sS'core'
p621
S'arduino'
p622
ssS'name'
p623
S'Arduino Ethernet'
p624
saa(lp625
S'fio'
p626
a(dp627
S'bootloader'
p628
(dp629
S'extended_fuses'
p630
S'0x05'
p631
sS'high_fuses'
p632
S'0xDA'
p633
sS'low_fuses'
p634
S'0xFF'
p635
sS'lock_bits'
p636
S'0x0F'
p637
sS'file'
p638
S'ATmegaBOOT_168_atmega328_pro_8MHz.hex'
p639
sS'path'
p640
S'arduino:atmega'
p641
sS'unlock_bits'
p642
S'0x3F'
p643
ssS'upload'
p644
(dp645
S'protocol'
p646
S'arduino'
p647
sS'maximum_size'
p648
S'30720'
p649
sS'speed'
p650
S'57600'
p651
ssS'build'
p652
(dp653
S'core'
p654
S'arduino'
p655
sS'mcu'
p656
S'atmega328p'
p657
sS'f_cpu'
p658
S'8000000L'
p659
sS'variant'
p660
S'eightanaloginputs'
p661
ssS'name'
p662
S'Arduino Fio'
p663
saa(lp664
S'bt328'
p665
a(dp666
S'bootloader'
p667
(dp668
S'extended_fuses'
p669
S'0x05'
p670
sS'high_fuses'
p671
S'0xd8'
p672
sS'low_fuses'
p673
S'0xff'
p674
sS'lock_bits'
p675
S'0x0F'
p676
sS'file'
p677
S'ATmegaBOOT_168_atmega328_bt.hex'
p678
sS'path'
p679
S'bt'
p680
sS'unlock_bits'
p681
S'0x3F'
p682
ssS'upload'
p683
(dp684
S'protocol'
p685
S'arduino'
p686
sS'maximum_size'
p687
S'28672'
p688
sS'speed'
p689
S'19200'
p690
sS'disable_flushing'
p691
S'true'
p692
ssS'build'
p693
(dp694
S'core'
p695
S'arduino'
p696
sS'mcu'
p697
S'atmega328p'
p698
sS'f_cpu'
p699
S'16000000L'
p700
sS'variant'
p701
S'eightanaloginputs'
p702
ssS'name'
p703
S'Arduino BT w/ ATmega328'
p704
saa(lp705
S'bt'
p706
a(dp707
S'bootloader'
p708
(dp709
S'extended_fuses'
p710
S'0x00'
p711
sS'high_fuses'
p712
S'0xdd'
p713
sS'low_fuses'
p714
S'0xff'
p715
sS'lock_bits'
p716
S'0x0F'
p717
sS'file'
p718
S'ATmegaBOOT_168.hex'
p719
sS'path'
p720
S'bt'
p721
sS'unlock_bits'
p722
S'0x3F'
p723
ssS'upload'
p724
(dp725
S'protocol'
p726
S'arduino'
p727
sS'maximum_size'
p728
S'14336'
p729
sS'speed'
p730
S'19200'
p731
sS'disable_flushing'
p732
S'true'
p733
ssS'build'
p734
(dp735
S'core'
p736
S'arduino'
p737
sS'mcu'
p738
S'atmega168'
p739
sS'f_cpu'
p740
S'16000000L'
p741
sS'variant'
p742
S'eightanaloginputs'
p743
ssS'name'
p744
S'Arduino BT w/ ATmega168'
p745
saa(lp746
S'LilyPadUSB'
p747
a(dp748
S'bootloader'
p749
(dp750
S'extended_fuses'
p751
S'0xce'
p752
sS'high_fuses'
p753
S'0xd8'
p754
sS'low_fuses'
p755
S'0xff'
p756
sS'lock_bits'
p757
S'0x2F'
p758
sS'file'
p759
S'Caterina-LilyPadUSB.hex'
p760
sS'path'
p761
S'caterina-LilyPadUSB'
p762
sS'unlock_bits'
p763
S'0x3F'
p764
ssS'upload'
p765
(dp766
S'protocol'
p767
S'avr109'
p768
sS'maximum_size'
p769
S'28672'
p770
sS'speed'
p771
S'57600'
p772
sS'disable_flushing'
p773
S'true'
p774
ssS'build'
p775
(dp776
S'core'
p777
S'arduino'
p778
sS'f_cpu'
p779
S'8000000L'
p780
sS'vid'
p781
S'0x1B4F'
p782
sS'pid'
p783
S'0x9208'
p784
sS'variant'
p785
S'leonardo'
p786
sS'mcu'
p787
S'atmega32u4'
p788
ssS'name'
p789
S'LilyPad Arduino USB'
p790
saa(lp791
S'lilypad328'
p792
a(dp793
S'bootloader'
p794
(dp795
S'extended_fuses'
p796
S'0x05'
p797
sS'high_fuses'
p798
S'0xDA'
p799
sS'low_fuses'
p800
S'0xFF'
p801
sS'lock_bits'
p802
S'0x0F'
p803
sS'file'
p804
S'ATmegaBOOT_168_atmega328_pro_8MHz.hex'
p805
sS'path'
p806
S'atmega'
p807
sS'unlock_bits'
p808
S'0x3F'
p809
ssS'upload'
p810
(dp811
S'protocol'
p812
S'arduino'
p813
sS'maximum_size'
p814
S'30720'
p815
sS'speed'
p816
S'57600'
p817
ssS'build'
p818
(dp819
S'core'
p820
S'arduino'
p821
sS'mcu'
p822
S'atmega328p'
p823
sS'f_cpu'
p824
S'8000000L'
p825
sS'variant'
p826
S'standard'
p827
ssS'name'
p828
S'LilyPad Arduino w/ ATmega328'
p829
saa(lp830
S'lilypad'
p831
a(dp832
S'bootloader'
p833
(dp834
S'extended_fuses'
p835
S'0x00'
p836
sS'high_fuses'
p837
S'0xdd'
p838
sS'low_fuses'
p839
S'0xe2'
p840
sS'lock_bits'
p841
S'0x0F'
p842
sS'file'
p843
S'LilyPadBOOT_168.hex'
p844
sS'path'
p845
S'lilypad'
p846
sS'unlock_bits'
p847
S'0x3F'
p848
ssS'upload'
p849
(dp850
S'protocol'
p851
S'arduino'
p852
sS'maximum_size'
p853
S'14336'
p854
sS'speed'
p855
S'19200'
p856
ssS'build'
p857
(dp858
S'core'
p859
S'arduino'
p860
sS'mcu'
p861
S'atmega168'
p862
sS'f_cpu'
p863
S'8000000L'
p864
sS'variant'
p865
S'standard'
p866
ssS'name'
p867
S'LilyPad Arduino w/ ATmega168'
p868
saa(lp869
S'pro5v328'
p870
a(dp871
S'bootloader'
p872
(dp873
S'extended_fuses'
p874
S'0x05'
p875
sS'high_fuses'
p876
S'0xDA'
p877
sS'low_fuses'
p878
S'0xFF'
p879
sS'lock_bits'
p880
S'0x0F'
p881
sS'file'
p882
S'ATmegaBOOT_168_atmega328.hex'
p883
sS'path'
p884
S'atmega'
p885
sS'unlock_bits'
p886
S'0x3F'
p887
ssS'upload'
p888
(dp889
S'protocol'
p890
S'arduino'
p891
sS'maximum_size'
p892
S'30720'
p893
sS'speed'
p894
S'57600'
p895
ssS'build'
p896
(dp897
S'core'
p898
S'arduino'
p899
sS'mcu'
p900
S'atmega328p'
p901
sS'f_cpu'
p902
S'16000000L'
p903
sS'variant'
p904
S'standard'
p905
ssS'name'
p906
S'Arduino Pro or Pro Mini (5V, 16 MHz) w/ ATmega328'
p907
saa(lp908
S'pro5v'
p909
a(dp910
S'bootloader'
p911
(dp912
S'extended_fuses'
p913
S'0x00'
p914
sS'high_fuses'
p915
S'0xdd'
p916
sS'low_fuses'
p917
S'0xff'
p918
sS'lock_bits'
p919
S'0x0F'
p920
sS'file'
p921
S'ATmegaBOOT_168_diecimila.hex'
p922
sS'path'
p923
S'atmega'
p924
sS'unlock_bits'
p925
S'0x3F'
p926
ssS'upload'
p927
(dp928
S'protocol'
p929
S'arduino'
p930
sS'maximum_size'
p931
S'14336'
p932
sS'speed'
p933
S'19200'
p934
ssS'build'
p935
(dp936
S'core'
p937
S'arduino'
p938
sS'mcu'
p939
S'atmega168'
p940
sS'f_cpu'
p941
S'16000000L'
p942
sS'variant'
p943
S'standard'
p944
ssS'name'
p945
S'Arduino Pro or Pro Mini (5V, 16 MHz) w/ ATmega168'
p946
saa(lp947
S'pro328'
p948
a(dp949
S'bootloader'
p950
(dp951
S'extended_fuses'
p952
S'0x05'
p953
sS'high_fuses'
p954
S'0xDA'
p955
sS'low_fuses'
p956
S'0xFF'
p957
sS'lock_bits'
p958
S'0x0F'
p959
sS'file'
p960
S'ATmegaBOOT_168_atmega328_pro_8MHz.hex'
p961
sS'path'
p962
S'atmega'
p963
sS'unlock_bits'
p964
S'0x3F'
p965
ssS'upload'
p966
(dp967
S'protocol'
p968
S'arduino'
p969
sS'maximum_size'
p970
S'30720'
p971
sS'speed'
p972
S'57600'
p973
ssS'build'
p974
(dp975
S'core'
p976
S'arduino'
p977
sS'mcu'
p978
S'atmega328p'
p979
sS'f_cpu'
p980
S'8000000L'
p981
sS'variant'
p982
S'standard'
p983
ssS'name'
p984
S'Arduino Pro or Pro Mini (3.3V, 8 MHz) w/ ATmega328'
p985
saa(lp986
S'pro'
p987
a(dp988
S'bootloader'
p989
(dp990
S'extended_fuses'
p991
S'0x00'
p992
sS'high_fuses'
p993
S'0xdd'
p994
sS'low_fuses'
p995
S'0xc6'
p996
sS'lock_bits'
p997
S'0x0F'
p998
sS'file'
p999
S'ATmegaBOOT_168_pro_8MHz.hex'
p1000
sS'path'
p1001
S'atmega'
p1002
sS'unlock_bits'
p1003
S'0x3F'
p1004
ssS'upload'
p1005
(dp1006
S'protocol'
p1007
S'arduino'
p1008
sS'maximum_size'
p1009
S'14336'
p1010
sS'speed'
p1011
S'19200'
p1012
ssS'build'
p1013
(dp1014
S'core'
p1015
S'arduino'
p1016
sS'mcu'
p1017
S'atmega168'
p1018
sS'f_cpu'
p1019
S'8000000L'
p1020
sS'variant'
p1021
S'standard'
p1022
ssS'name'
p1023
S'Arduino Pro or Pro Mini (3.3V, 8 MHz) w/ ATmega168'
p1024
saa(lp1025
S'atmega168'
p1026
a(dp1027
S'bootloader'
p1028
(dp1029
S'extended_fuses'
p1030
S'0x00'
p1031
sS'high_fuses'
p1032
S'0xdd'
p1033
sS'low_fuses'
p1034
S'0xff'
p1035
sS'lock_bits'
p1036
S'0x0F'
p1037
sS'file'
p1038
S'ATmegaBOOT_168_ng.hex'
p1039
sS'path'
p1040
S'atmega'
p1041
sS'unlock_bits'
p1042
S'0x3F'
p1043
ssS'upload'
p1044
(dp1045
S'protocol'
p1046
S'arduino'
p1047
sS'maximum_size'
p1048
S'14336'
p1049
sS'speed'
p1050
S'19200'
p1051
ssS'build'
p1052
(dp1053
S'core'
p1054
S'arduino'
p1055
sS'mcu'
p1056
S'atmega168'
p1057
sS'f_cpu'
p1058
S'16000000L'
p1059
sS'variant'
p1060
S'standard'
p1061
ssS'name'
p1062
S'Arduino NG or older w/ ATmega168'
p1063
saa(lp1064
S'atmega8'
p1065
a(dp1066
S'bootloader'
p1067
(dp1068
S'high_fuses'
p1069
S'0xca'
p1070
sS'low_fuses'
p1071
S'0xdf'
p1072
sS'lock_bits'
p1073
S'0x0F'
p1074
sS'file'
p1075
S'ATmegaBOOT-prod-firmware-2009-11-07.hex'
p1076
sS'path'
p1077
S'atmega8'
p1078
sS'unlock_bits'
p1079
S'0x3F'
p1080
ssS'upload'
p1081
(dp1082
S'protocol'
p1083
S'arduino'
p1084
sS'maximum_size'
p1085
S'7168'
p1086
sS'speed'
p1087
S'19200'
p1088
ssS'build'
p1089
(dp1090
S'core'
p1091
S'arduino'
p1092
sS'mcu'
p1093
S'atmega8'
p1094
sS'f_cpu'
p1095
S'16000000L'
p1096
sS'variant'
p1097
S'standard'
p1098
ssS'name'
p1099
S'Arduino NG or older w/ ATmega8'
p1100
saa(lp1101
S'flora8'
p1102
a(dp1103
S'bootloader'
p1104
(dp1105
S'extended_fuses'
p1106
S'0xcb'
p1107
sS'high_fuses'
p1108
S'0xd8'
p1109
sS'low_fuses'
p1110
S'0xff'
p1111
sS'lock_bits'
p1112
S'0x2F'
p1113
sS'file'
p1114
S'Caterina-Flora8.hex'
p1115
sS'path'
p1116
S'caterina'
p1117
sS'unlock_bits'
p1118
S'0x3F'
p1119
ssS'upload'
p1120
(dp1121
S'protocol'
p1122
S'avr109'
p1123
sS'maximum_size'
p1124
S'28672'
p1125
sS'speed'
p1126
S'57600'
p1127
sS'disable_flushing'
p1128
S'true'
p1129
ssS'build'
p1130
(dp1131
S'core'
p1132
S'arduino'
p1133
sS'f_cpu'
p1134
S'8000000L'
p1135
sS'vid'
p1136
S'0x239A'
p1137
sS'pid'
p1138
S'0x8004'
p1139
sS'variant'
p1140
S'flora'
p1141
sS'mcu'
p1142
S'atmega32u4'
p1143
ssS'name'
p1144
S'Adafruit Flora'
p1145
saa(lp1146
S'gemma'
p1147
a(dp1148
S'bootloader'
p1149
(dp1150
S'low_fuses'
p1151
S'0xF1'
p1152
sS'extended_fuses'
p1153
S'0xFE'
p1154
sS'high_fuses'
p1155
S'0xD5'
p1156
ssS'upload'
p1157
(dp1158
S'maximum_size'
p1159
S'5310'
p1160
ssS'build'
p1161
(dp1162
S'core'
p1163
S'arduino:arduino'
p1164
sS'mcu'
p1165
S'attiny85'
p1166
sS'f_cpu'
p1167
S'8000000L'
p1168
sS'variant'
p1169
S'tiny8'
p1170
ssS'name'
p1171
S'Adafruit Gemma 8MHz'
p1172
saa(lp1173
S'trinket3'
p1174
a(dp1175
S'bootloader'
p1176
(dp1177
S'low_fuses'
p1178
S'0xF1'
p1179
sS'extended_fuses'
p1180
S'0xFE'
p1181
sS'high_fuses'
p1182
S'0xD5'
p1183
ssS'upload'
p1184
(dp1185
S'maximum_size'
p1186
S'5310'
p1187
ssS'build'
p1188
(dp1189
S'core'
p1190
S'arduino:arduino'
p1191
sS'mcu'
p1192
S'attiny85'
p1193
sS'f_cpu'
p1194
S'8000000L'
p1195
sS'variant'
p1196
S'tiny8'
p1197
ssS'name'
p1198
S'Adafruit Trinket 8MHz'
p1199
saa(lp1200
S'trinket5'
p1201
a(dp1202
S'bootloader'
p1203
(dp1204
S'low_fuses'
p1205
S'0xF1'
p1206
sS'extended_fuses'
p1207
S'0xFE'
p1208
sS'high_fuses'
p1209
S'0xD5'
p1210
ssS'upload'
p1211
(dp1212
S'maximum_size'
p1213
S'5310'
p1214
ssS'build'
p1215
(dp1216
S'core'
p1217
S'arduino:arduino'
p1218
sS'mcu'
p1219
S'attiny85'
p1220
sS'f_cpu'
p1221
S'16000000L'
p1222
sS'variant'
p1223
S'tiny8'
p1224
ssS'name'
p1225
S'Adafruit Trinket 16MHz'
p1226
saatp1227
Rp1228
(dp1229
S'default'
p1230
S'uno'
p1231
sbtp1232
a(S'cc'
p1233
S'/Applications/Arduino.app/Contents/Resources/Java/hardware/tools/avr/bin/avr-gcc'
p1234
tp1235
a.