(lp0
(S'cppflags'
p1
ccopy_reg
_reconstructor
p2
(cino.utils
SpaceList
p3
c__builtin__
list
p4
(lp5
S'-mmcu=atmega328p'
p6
aS'-DF_CPU=16000000L'
p7
aS'-DARDUINO=105'
p8
aS'-I/Applications/Arduino.app/Contents/Resources/Java/hardware/arduino/cores/arduino'
p9
aS'-ffunction-sections'
p10
aS'-fdata-sections'
p11
aS'-g'
p12
aS'-Os'
p13
aS'-w'
p14
aS'-I/Applications/Arduino.app/Contents/Resources/Java/hardware/arduino/variants/standard'
p15
aS'-I/Applications/Arduino.app/Contents/Resources/Java/hardware/arduino/cores/arduino'
p16
aS'-I/Applications/Arduino.app/Contents/Resources/Java/hardware/arduino/cores/arduino/avr-libc'
p17
atp18
Rp19
tp20
a(S'version.txt'
p21
S'/Applications/Arduino.app/Contents/Resources/Java/lib/version.txt'
p22
tp23
a(S'used_libs'
p24
(lp25
S'/Applications/Arduino.app/Contents/Resources/Java/hardware/arduino/cores/arduino'
p26
atp27
a(S'cxx'
p28
S'/Applications/Arduino.app/Contents/Resources/Java/hardware/tools/avr/bin/avr-g++'
p29
tp30
a(S'make'
p31
S'/Applications/Arduino.app/Contents/Resources/Java/hardware/tools/avr/bin/make'
p32
tp33
a(S'cflags'
p34
g2
(g3
g4
(lp35
tp36
Rp37
tp38
a(S'build_dir'
p39
S'.build/uno'
p40
tp41
a(S'arduino_core_dir'
p42
g26
tp43
a(S'boards.txt'
p44
S'/Applications/Arduino.app/Contents/Resources/Java/hardware/arduino/boards.txt'
p45
tp46
a(S'cxxflags'
p47
g2
(g3
g4
(lp48
S'-fno-exceptions'
p49
atp50
Rp51
tp52
a(S'arduino_variants_dir'
p53
S'/Applications/Arduino.app/Contents/Resources/Java/hardware/arduino/variants'
p54
tp55
a(S'ar'
p56
S'/Applications/Arduino.app/Contents/Resources/Java/hardware/tools/avr/bin/avr-ar'
p57
tp58
a(S'names'
p59
(dp60
S'cpp'
p61
S'%s.cpp'
p62
sS'obj'
p63
S'%s.o'
p64
sS'lib'
p65
S'lib%s.a'
p66
sS'deps'
p67
S'%s.d'
p68
stp69
a(g67
g2
(g3
g4
(lp70
S'.build/uno/src/dependencies.d'
p71
aS'.build/uno/arduino/dependencies.d'
p72
atp73
Rp74
tp75
a(S'ldflags'
p76
g2
(g3
g4
(lp77
g6
aS'-Wl,-Os'
p78
aS'-Wl,--gc-sections'
p79
atp80
Rp81
tp82
a(S'arduino_libraries_dir'
p83
S'/Applications/Arduino.app/Contents/Resources/Java/libraries'
p84
tp85
a(S'arduino_lib_version'
p86
g2
(cino.environment
Version
p87
c__builtin__
tuple
p88
(I1
I0
I5
tp89
tp90
Rp91
tp92
a(S'objcopy'
p93
S'/Applications/Arduino.app/Contents/Resources/Java/hardware/tools/avr/bin/avr-objcopy'
p94
tp95
a(S'board_models'
p96
cino.environment
BoardModels
p97
((lp98
(lp99
S'uno'
p100
a(dp101
S'build'
p102
(dp103
S'core'
p104
S'arduino'
p105
sS'mcu'
p106
S'atmega328p'
p107
sS'f_cpu'
p108
S'16000000L'
p109
sS'variant'
p110
S'standard'
p111
ssS'bootloader'
p112
(dp113
S'extended_fuses'
p114
S'0x05'
p115
sS'high_fuses'
p116
S'0xde'
p117
sS'low_fuses'
p118
S'0xff'
p119
sS'lock_bits'
p120
S'0x0F'
p121
sS'file'
p122
S'optiboot_atmega328.hex'
p123
sS'path'
p124
S'optiboot'
p125
sS'unlock_bits'
p126
S'0x3F'
p127
ssS'upload'
p128
(dp129
S'protocol'
p130
S'arduino'
p131
sS'maximum_size'
p132
S'32256'
p133
sS'speed'
p134
S'115200'
p135
ssS'name'
p136
S'Arduino Uno'
p137
saa(lp138
S'atmega328'
p139
a(dp140
S'build'
p141
(dp142
S'core'
p143
S'arduino'
p144
sS'mcu'
p145
S'atmega328p'
p146
sS'f_cpu'
p147
S'16000000L'
p148
sS'variant'
p149
S'standard'
p150
ssS'bootloader'
p151
(dp152
S'extended_fuses'
p153
S'0x05'
p154
sS'high_fuses'
p155
S'0xDA'
p156
sS'low_fuses'
p157
S'0xFF'
p158
sS'lock_bits'
p159
S'0x0F'
p160
sS'file'
p161
S'ATmegaBOOT_168_atmega328.hex'
p162
sS'path'
p163
S'atmega'
p164
sS'unlock_bits'
p165
S'0x3F'
p166
ssS'upload'
p167
(dp168
S'protocol'
p169
S'arduino'
p170
sS'maximum_size'
p171
S'30720'
p172
sS'speed'
p173
S'57600'
p174
ssS'name'
p175
S'Arduino Duemilanove w/ ATmega328'
p176
saa(lp177
S'diecimila'
p178
a(dp179
S'build'
p180
(dp181
S'core'
p182
S'arduino'
p183
sS'mcu'
p184
S'atmega168'
p185
sS'f_cpu'
p186
S'16000000L'
p187
sS'variant'
p188
S'standard'
p189
ssS'bootloader'
p190
(dp191
S'extended_fuses'
p192
S'0x00'
p193
sS'high_fuses'
p194
S'0xdd'
p195
sS'low_fuses'
p196
S'0xff'
p197
sS'lock_bits'
p198
S'0x0F'
p199
sS'file'
p200
S'ATmegaBOOT_168_diecimila.hex'
p201
sS'path'
p202
S'atmega'
p203
sS'unlock_bits'
p204
S'0x3F'
p205
ssS'upload'
p206
(dp207
S'protocol'
p208
S'arduino'
p209
sS'maximum_size'
p210
S'14336'
p211
sS'speed'
p212
S'19200'
p213
ssS'name'
p214
S'Arduino Diecimila or Duemilanove w/ ATmega168'
p215
saa(lp216
S'nano328'
p217
a(dp218
S'build'
p219
(dp220
S'core'
p221
S'arduino'
p222
sS'mcu'
p223
S'atmega328p'
p224
sS'f_cpu'
p225
S'16000000L'
p226
sS'variant'
p227
S'eightanaloginputs'
p228
ssS'bootloader'
p229
(dp230
S'extended_fuses'
p231
S'0x05'
p232
sS'high_fuses'
p233
S'0xDA'
p234
sS'low_fuses'
p235
S'0xFF'
p236
sS'lock_bits'
p237
S'0x0F'
p238
sS'file'
p239
S'ATmegaBOOT_168_atmega328.hex'
p240
sS'path'
p241
S'atmega'
p242
sS'unlock_bits'
p243
S'0x3F'
p244
ssS'upload'
p245
(dp246
S'protocol'
p247
S'arduino'
p248
sS'maximum_size'
p249
S'30720'
p250
sS'speed'
p251
S'57600'
p252
ssS'name'
p253
S'Arduino Nano w/ ATmega328'
p254
saa(lp255
S'nano'
p256
a(dp257
S'build'
p258
(dp259
S'core'
p260
S'arduino'
p261
sS'mcu'
p262
S'atmega168'
p263
sS'f_cpu'
p264
S'16000000L'
p265
sS'variant'
p266
S'eightanaloginputs'
p267
ssS'bootloader'
p268
(dp269
S'extended_fuses'
p270
S'0x00'
p271
sS'high_fuses'
p272
S'0xdd'
p273
sS'low_fuses'
p274
S'0xff'
p275
sS'lock_bits'
p276
S'0x0F'
p277
sS'file'
p278
S'ATmegaBOOT_168_diecimila.hex'
p279
sS'path'
p280
S'atmega'
p281
sS'unlock_bits'
p282
S'0x3F'
p283
ssS'upload'
p284
(dp285
S'protocol'
p286
S'arduino'
p287
sS'maximum_size'
p288
S'14336'
p289
sS'speed'
p290
S'19200'
p291
ssS'name'
p292
S'Arduino Nano w/ ATmega168'
p293
saa(lp294
S'mega2560'
p295
a(dp296
S'build'
p297
(dp298
S'core'
p299
S'arduino'
p300
sS'mcu'
p301
S'atmega2560'
p302
sS'f_cpu'
p303
S'16000000L'
p304
sS'variant'
p305
S'mega'
p306
ssS'bootloader'
p307
(dp308
S'extended_fuses'
p309
S'0xFD'
p310
sS'high_fuses'
p311
S'0xD8'
p312
sS'low_fuses'
p313
S'0xFF'
p314
sS'lock_bits'
p315
S'0x0F'
p316
sS'file'
p317
S'stk500boot_v2_mega2560.hex'
p318
sS'path'
p319
S'stk500v2'
p320
sS'unlock_bits'
p321
S'0x3F'
p322
ssS'upload'
p323
(dp324
S'protocol'
p325
S'wiring'
p326
sS'maximum_size'
p327
S'258048'
p328
sS'speed'
p329
S'115200'
p330
ssS'name'
p331
S'Arduino Mega 2560 or Mega ADK'
p332
saa(lp333
S'mega'
p334
a(dp335
S'build'
p336
(dp337
S'core'
p338
S'arduino'
p339
sS'mcu'
p340
S'atmega1280'
p341
sS'f_cpu'
p342
S'16000000L'
p343
sS'variant'
p344
S'mega'
p345
ssS'bootloader'
p346
(dp347
S'extended_fuses'
p348
S'0xF5'
p349
sS'high_fuses'
p350
S'0xDA'
p351
sS'low_fuses'
p352
S'0xFF'
p353
sS'lock_bits'
p354
S'0x0F'
p355
sS'file'
p356
S'ATmegaBOOT_168_atmega1280.hex'
p357
sS'path'
p358
S'atmega'
p359
sS'unlock_bits'
p360
S'0x3F'
p361
ssS'upload'
p362
(dp363
S'protocol'
p364
S'arduino'
p365
sS'maximum_size'
p366
S'126976'
p367
sS'speed'
p368
S'57600'
p369
ssS'name'
p370
S'Arduino Mega (ATmega1280)'
p371
saa(lp372
S'leonardo'
p373
a(dp374
S'build'
p375
(dp376
S'core'
p377
S'arduino'
p378
sS'f_cpu'
p379
S'16000000L'
p380
sS'vid'
p381
S'0x2341'
p382
sS'pid'
p383
S'0x8036'
p384
sS'variant'
p385
S'leonardo'
p386
sS'mcu'
p387
S'atmega32u4'
p388
ssS'bootloader'
p389
(dp390
S'extended_fuses'
p391
S'0xcb'
p392
sS'high_fuses'
p393
S'0xd8'
p394
sS'low_fuses'
p395
S'0xff'
p396
sS'lock_bits'
p397
S'0x2F'
p398
sS'file'
p399
S'Caterina-Leonardo.hex'
p400
sS'path'
p401
S'caterina'
p402
sS'unlock_bits'
p403
S'0x3F'
p404
ssS'upload'
p405
(dp406
S'protocol'
p407
S'avr109'
p408
sS'maximum_size'
p409
S'28672'
p410
sS'speed'
p411
S'57600'
p412
sS'disable_flushing'
p413
S'true'
p414
ssS'name'
p415
S'Arduino Leonardo'
p416
saa(lp417
S'esplora'
p418
a(dp419
S'build'
p420
(dp421
S'core'
p422
S'arduino'
p423
sS'f_cpu'
p424
S'16000000L'
p425
sS'vid'
p426
S'0x2341'
p427
sS'pid'
p428
S'0x803C'
p429
sS'variant'
p430
S'leonardo'
p431
sS'mcu'
p432
S'atmega32u4'
p433
ssS'bootloader'
p434
(dp435
S'extended_fuses'
p436
S'0xcb'
p437
sS'high_fuses'
p438
S'0xd8'
p439
sS'low_fuses'
p440
S'0xff'
p441
sS'lock_bits'
p442
S'0x2F'
p443
sS'file'
p444
S'Caterina-Esplora.hex'
p445
sS'path'
p446
S'caterina'
p447
sS'unlock_bits'
p448
S'0x3F'
p449
ssS'upload'
p450
(dp451
S'protocol'
p452
S'avr109'
p453
sS'maximum_size'
p454
S'28672'
p455
sS'speed'
p456
S'57600'
p457
sS'disable_flushing'
p458
S'true'
p459
ssS'name'
p460
S'Arduino Esplora'
p461
saa(lp462
S'micro'
p463
a(dp464
S'build'
p465
(dp466
S'core'
p467
S'arduino'
p468
sS'f_cpu'
p469
S'16000000L'
p470
sS'vid'
p471
S'0x2341'
p472
sS'pid'
p473
S'0x8037'
p474
sS'variant'
p475
S'micro'
p476
sS'mcu'
p477
S'atmega32u4'
p478
ssS'bootloader'
p479
(dp480
S'extended_fuses'
p481
S'0xcb'
p482
sS'high_fuses'
p483
S'0xd8'
p484
sS'low_fuses'
p485
S'0xff'
p486
sS'lock_bits'
p487
S'0x2F'
p488
sS'file'
p489
S'Caterina-Micro.hex'
p490
sS'path'
p491
S'caterina'
p492
sS'unlock_bits'
p493
S'0x3F'
p494
ssS'upload'
p495
(dp496
S'protocol'
p497
S'avr109'
p498
sS'maximum_size'
p499
S'28672'
p500
sS'speed'
p501
S'57600'
p502
sS'disable_flushing'
p503
S'true'
p504
ssS'name'
p505
S'Arduino Micro'
p506
saa(lp507
S'mini328'
p508
a(dp509
S'build'
p510
(dp511
S'core'
p512
S'arduino'
p513
sS'mcu'
p514
S'atmega328p'
p515
sS'f_cpu'
p516
S'16000000L'
p517
sS'variant'
p518
S'eightanaloginputs'
p519
ssS'bootloader'
p520
(dp521
S'extended_fuses'
p522
S'0x05'
p523
sS'high_fuses'
p524
S'0xd8'
p525
sS'low_fuses'
p526
S'0xff'
p527
sS'lock_bits'
p528
S'0x0F'
p529
sS'file'
p530
S'optiboot_atmega328-Mini.hex'
p531
sS'path'
p532
S'optiboot'
p533
sS'unlock_bits'
p534
S'0x3F'
p535
ssS'upload'
p536
(dp537
S'protocol'
p538
S'arduino'
p539
sS'maximum_size'
p540
S'28672'
p541
sS'speed'
p542
S'115200'
p543
ssS'name'
p544
S'Arduino Mini w/ ATmega328'
p545
saa(lp546
S'mini'
p547
a(dp548
S'build'
p549
(dp550
S'core'
p551
S'arduino'
p552
sS'mcu'
p553
S'atmega168'
p554
sS'f_cpu'
p555
S'16000000L'
p556
sS'variant'
p557
S'eightanaloginputs'
p558
ssS'bootloader'
p559
(dp560
S'extended_fuses'
p561
S'0x00'
p562
sS'high_fuses'
p563
S'0xdd'
p564
sS'low_fuses'
p565
S'0xff'
p566
sS'lock_bits'
p567
S'0x0F'
p568
sS'file'
p569
S'ATmegaBOOT_168_ng.hex'
p570
sS'path'
p571
S'atmega'
p572
sS'unlock_bits'
p573
S'0x3F'
p574
ssS'upload'
p575
(dp576
S'protocol'
p577
S'arduino'
p578
sS'maximum_size'
p579
S'14336'
p580
sS'speed'
p581
S'19200'
p582
ssS'name'
p583
S'Arduino Mini w/ ATmega168'
p584
saa(lp585
S'ethernet'
p586
a(dp587
S'build'
p588
(dp589
S'variant'
p590
S'standard'
p591
sS'mcu'
p592
S'atmega328p'
p593
sS'f_cpu'
p594
S'16000000L'
p595
sS'core'
p596
S'arduino'
p597
ssS'bootloader'
p598
(dp599
S'extended_fuses'
p600
S'0x05'
p601
sS'high_fuses'
p602
S'0xde'
p603
sS'low_fuses'
p604
S'0xff'
p605
sS'lock_bits'
p606
S'0x0F'
p607
sS'file'
p608
S'optiboot_atmega328.hex'
p609
sS'path'
p610
S'optiboot'
p611
sS'unlock_bits'
p612
S'0x3F'
p613
ssS'upload'
p614
(dp615
S'protocol'
p616
S'arduino'
p617
sS'maximum_size'
p618
S'32256'
p619
sS'speed'
p620
S'115200'
p621
ssS'name'
p622
S'Arduino Ethernet'
p623
saa(lp624
S'fio'
p625
a(dp626
S'build'
p627
(dp628
S'core'
p629
S'arduino'
p630
sS'mcu'
p631
S'atmega328p'
p632
sS'f_cpu'
p633
S'8000000L'
p634
sS'variant'
p635
S'eightanaloginputs'
p636
ssS'bootloader'
p637
(dp638
S'extended_fuses'
p639
S'0x05'
p640
sS'high_fuses'
p641
S'0xDA'
p642
sS'low_fuses'
p643
S'0xFF'
p644
sS'lock_bits'
p645
S'0x0F'
p646
sS'file'
p647
S'ATmegaBOOT_168_atmega328_pro_8MHz.hex'
p648
sS'path'
p649
S'arduino:atmega'
p650
sS'unlock_bits'
p651
S'0x3F'
p652
ssS'upload'
p653
(dp654
S'protocol'
p655
S'arduino'
p656
sS'maximum_size'
p657
S'30720'
p658
sS'speed'
p659
S'57600'
p660
ssS'name'
p661
S'Arduino Fio'
p662
saa(lp663
S'bt328'
p664
a(dp665
S'build'
p666
(dp667
S'core'
p668
S'arduino'
p669
sS'mcu'
p670
S'atmega328p'
p671
sS'f_cpu'
p672
S'16000000L'
p673
sS'variant'
p674
S'eightanaloginputs'
p675
ssS'bootloader'
p676
(dp677
S'extended_fuses'
p678
S'0x05'
p679
sS'high_fuses'
p680
S'0xd8'
p681
sS'low_fuses'
p682
S'0xff'
p683
sS'lock_bits'
p684
S'0x0F'
p685
sS'file'
p686
S'ATmegaBOOT_168_atmega328_bt.hex'
p687
sS'path'
p688
S'bt'
p689
sS'unlock_bits'
p690
S'0x3F'
p691
ssS'upload'
p692
(dp693
S'protocol'
p694
S'arduino'
p695
sS'maximum_size'
p696
S'28672'
p697
sS'speed'
p698
S'19200'
p699
sS'disable_flushing'
p700
S'true'
p701
ssS'name'
p702
S'Arduino BT w/ ATmega328'
p703
saa(lp704
S'bt'
p705
a(dp706
S'build'
p707
(dp708
S'core'
p709
S'arduino'
p710
sS'mcu'
p711
S'atmega168'
p712
sS'f_cpu'
p713
S'16000000L'
p714
sS'variant'
p715
S'eightanaloginputs'
p716
ssS'bootloader'
p717
(dp718
S'extended_fuses'
p719
S'0x00'
p720
sS'high_fuses'
p721
S'0xdd'
p722
sS'low_fuses'
p723
S'0xff'
p724
sS'lock_bits'
p725
S'0x0F'
p726
sS'file'
p727
S'ATmegaBOOT_168.hex'
p728
sS'path'
p729
S'bt'
p730
sS'unlock_bits'
p731
S'0x3F'
p732
ssS'upload'
p733
(dp734
S'protocol'
p735
S'arduino'
p736
sS'maximum_size'
p737
S'14336'
p738
sS'speed'
p739
S'19200'
p740
sS'disable_flushing'
p741
S'true'
p742
ssS'name'
p743
S'Arduino BT w/ ATmega168'
p744
saa(lp745
S'LilyPadUSB'
p746
a(dp747
S'build'
p748
(dp749
S'core'
p750
S'arduino'
p751
sS'f_cpu'
p752
S'8000000L'
p753
sS'vid'
p754
S'0x1B4F'
p755
sS'pid'
p756
S'0x9208'
p757
sS'variant'
p758
S'leonardo'
p759
sS'mcu'
p760
S'atmega32u4'
p761
ssS'bootloader'
p762
(dp763
S'extended_fuses'
p764
S'0xce'
p765
sS'high_fuses'
p766
S'0xd8'
p767
sS'low_fuses'
p768
S'0xff'
p769
sS'lock_bits'
p770
S'0x2F'
p771
sS'file'
p772
S'Caterina-LilyPadUSB.hex'
p773
sS'path'
p774
S'caterina-LilyPadUSB'
p775
sS'unlock_bits'
p776
S'0x3F'
p777
ssS'upload'
p778
(dp779
S'protocol'
p780
S'avr109'
p781
sS'maximum_size'
p782
S'28672'
p783
sS'speed'
p784
S'57600'
p785
sS'disable_flushing'
p786
S'true'
p787
ssS'name'
p788
S'LilyPad Arduino USB'
p789
saa(lp790
S'lilypad328'
p791
a(dp792
S'build'
p793
(dp794
S'core'
p795
S'arduino'
p796
sS'mcu'
p797
S'atmega328p'
p798
sS'f_cpu'
p799
S'8000000L'
p800
sS'variant'
p801
S'standard'
p802
ssS'bootloader'
p803
(dp804
S'extended_fuses'
p805
S'0x05'
p806
sS'high_fuses'
p807
S'0xDA'
p808
sS'low_fuses'
p809
S'0xFF'
p810
sS'lock_bits'
p811
S'0x0F'
p812
sS'file'
p813
S'ATmegaBOOT_168_atmega328_pro_8MHz.hex'
p814
sS'path'
p815
S'atmega'
p816
sS'unlock_bits'
p817
S'0x3F'
p818
ssS'upload'
p819
(dp820
S'protocol'
p821
S'arduino'
p822
sS'maximum_size'
p823
S'30720'
p824
sS'speed'
p825
S'57600'
p826
ssS'name'
p827
S'LilyPad Arduino w/ ATmega328'
p828
saa(lp829
S'lilypad'
p830
a(dp831
S'build'
p832
(dp833
S'core'
p834
S'arduino'
p835
sS'mcu'
p836
S'atmega168'
p837
sS'f_cpu'
p838
S'8000000L'
p839
sS'variant'
p840
S'standard'
p841
ssS'bootloader'
p842
(dp843
S'extended_fuses'
p844
S'0x00'
p845
sS'high_fuses'
p846
S'0xdd'
p847
sS'low_fuses'
p848
S'0xe2'
p849
sS'lock_bits'
p850
S'0x0F'
p851
sS'file'
p852
S'LilyPadBOOT_168.hex'
p853
sS'path'
p854
S'lilypad'
p855
sS'unlock_bits'
p856
S'0x3F'
p857
ssS'upload'
p858
(dp859
S'protocol'
p860
S'arduino'
p861
sS'maximum_size'
p862
S'14336'
p863
sS'speed'
p864
S'19200'
p865
ssS'name'
p866
S'LilyPad Arduino w/ ATmega168'
p867
saa(lp868
S'pro5v328'
p869
a(dp870
S'build'
p871
(dp872
S'core'
p873
S'arduino'
p874
sS'mcu'
p875
S'atmega328p'
p876
sS'f_cpu'
p877
S'16000000L'
p878
sS'variant'
p879
S'standard'
p880
ssS'bootloader'
p881
(dp882
S'extended_fuses'
p883
S'0x05'
p884
sS'high_fuses'
p885
S'0xDA'
p886
sS'low_fuses'
p887
S'0xFF'
p888
sS'lock_bits'
p889
S'0x0F'
p890
sS'file'
p891
S'ATmegaBOOT_168_atmega328.hex'
p892
sS'path'
p893
S'atmega'
p894
sS'unlock_bits'
p895
S'0x3F'
p896
ssS'upload'
p897
(dp898
S'protocol'
p899
S'arduino'
p900
sS'maximum_size'
p901
S'30720'
p902
sS'speed'
p903
S'57600'
p904
ssS'name'
p905
S'Arduino Pro or Pro Mini (5V, 16 MHz) w/ ATmega328'
p906
saa(lp907
S'pro5v'
p908
a(dp909
S'build'
p910
(dp911
S'core'
p912
S'arduino'
p913
sS'mcu'
p914
S'atmega168'
p915
sS'f_cpu'
p916
S'16000000L'
p917
sS'variant'
p918
S'standard'
p919
ssS'bootloader'
p920
(dp921
S'extended_fuses'
p922
S'0x00'
p923
sS'high_fuses'
p924
S'0xdd'
p925
sS'low_fuses'
p926
S'0xff'
p927
sS'lock_bits'
p928
S'0x0F'
p929
sS'file'
p930
S'ATmegaBOOT_168_diecimila.hex'
p931
sS'path'
p932
S'atmega'
p933
sS'unlock_bits'
p934
S'0x3F'
p935
ssS'upload'
p936
(dp937
S'protocol'
p938
S'arduino'
p939
sS'maximum_size'
p940
S'14336'
p941
sS'speed'
p942
S'19200'
p943
ssS'name'
p944
S'Arduino Pro or Pro Mini (5V, 16 MHz) w/ ATmega168'
p945
saa(lp946
S'pro328'
p947
a(dp948
S'build'
p949
(dp950
S'core'
p951
S'arduino'
p952
sS'mcu'
p953
S'atmega328p'
p954
sS'f_cpu'
p955
S'8000000L'
p956
sS'variant'
p957
S'standard'
p958
ssS'bootloader'
p959
(dp960
S'extended_fuses'
p961
S'0x05'
p962
sS'high_fuses'
p963
S'0xDA'
p964
sS'low_fuses'
p965
S'0xFF'
p966
sS'lock_bits'
p967
S'0x0F'
p968
sS'file'
p969
S'ATmegaBOOT_168_atmega328_pro_8MHz.hex'
p970
sS'path'
p971
S'atmega'
p972
sS'unlock_bits'
p973
S'0x3F'
p974
ssS'upload'
p975
(dp976
S'protocol'
p977
S'arduino'
p978
sS'maximum_size'
p979
S'30720'
p980
sS'speed'
p981
S'57600'
p982
ssS'name'
p983
S'Arduino Pro or Pro Mini (3.3V, 8 MHz) w/ ATmega328'
p984
saa(lp985
S'pro'
p986
a(dp987
S'build'
p988
(dp989
S'core'
p990
S'arduino'
p991
sS'mcu'
p992
S'atmega168'
p993
sS'f_cpu'
p994
S'8000000L'
p995
sS'variant'
p996
S'standard'
p997
ssS'bootloader'
p998
(dp999
S'extended_fuses'
p1000
S'0x00'
p1001
sS'high_fuses'
p1002
S'0xdd'
p1003
sS'low_fuses'
p1004
S'0xc6'
p1005
sS'lock_bits'
p1006
S'0x0F'
p1007
sS'file'
p1008
S'ATmegaBOOT_168_pro_8MHz.hex'
p1009
sS'path'
p1010
S'atmega'
p1011
sS'unlock_bits'
p1012
S'0x3F'
p1013
ssS'upload'
p1014
(dp1015
S'protocol'
p1016
S'arduino'
p1017
sS'maximum_size'
p1018
S'14336'
p1019
sS'speed'
p1020
S'19200'
p1021
ssS'name'
p1022
S'Arduino Pro or Pro Mini (3.3V, 8 MHz) w/ ATmega168'
p1023
saa(lp1024
S'atmega168'
p1025
a(dp1026
S'build'
p1027
(dp1028
S'core'
p1029
S'arduino'
p1030
sS'mcu'
p1031
S'atmega168'
p1032
sS'f_cpu'
p1033
S'16000000L'
p1034
sS'variant'
p1035
S'standard'
p1036
ssS'bootloader'
p1037
(dp1038
S'extended_fuses'
p1039
S'0x00'
p1040
sS'high_fuses'
p1041
S'0xdd'
p1042
sS'low_fuses'
p1043
S'0xff'
p1044
sS'lock_bits'
p1045
S'0x0F'
p1046
sS'file'
p1047
S'ATmegaBOOT_168_ng.hex'
p1048
sS'path'
p1049
S'atmega'
p1050
sS'unlock_bits'
p1051
S'0x3F'
p1052
ssS'upload'
p1053
(dp1054
S'protocol'
p1055
S'arduino'
p1056
sS'maximum_size'
p1057
S'14336'
p1058
sS'speed'
p1059
S'19200'
p1060
ssS'name'
p1061
S'Arduino NG or older w/ ATmega168'
p1062
saa(lp1063
S'atmega8'
p1064
a(dp1065
S'build'
p1066
(dp1067
S'core'
p1068
S'arduino'
p1069
sS'mcu'
p1070
S'atmega8'
p1071
sS'f_cpu'
p1072
S'16000000L'
p1073
sS'variant'
p1074
S'standard'
p1075
ssS'bootloader'
p1076
(dp1077
S'high_fuses'
p1078
S'0xca'
p1079
sS'low_fuses'
p1080
S'0xdf'
p1081
sS'lock_bits'
p1082
S'0x0F'
p1083
sS'file'
p1084
S'ATmegaBOOT-prod-firmware-2009-11-07.hex'
p1085
sS'path'
p1086
S'atmega8'
p1087
sS'unlock_bits'
p1088
S'0x3F'
p1089
ssS'upload'
p1090
(dp1091
S'protocol'
p1092
S'arduino'
p1093
sS'maximum_size'
p1094
S'7168'
p1095
sS'speed'
p1096
S'19200'
p1097
ssS'name'
p1098
S'Arduino NG or older w/ ATmega8'
p1099
saa(lp1100
S'flora8'
p1101
a(dp1102
S'build'
p1103
(dp1104
S'core'
p1105
S'arduino'
p1106
sS'f_cpu'
p1107
S'8000000L'
p1108
sS'vid'
p1109
S'0x239A'
p1110
sS'pid'
p1111
S'0x8004'
p1112
sS'variant'
p1113
S'flora'
p1114
sS'mcu'
p1115
S'atmega32u4'
p1116
ssS'bootloader'
p1117
(dp1118
S'extended_fuses'
p1119
S'0xcb'
p1120
sS'high_fuses'
p1121
S'0xd8'
p1122
sS'low_fuses'
p1123
S'0xff'
p1124
sS'lock_bits'
p1125
S'0x2F'
p1126
sS'file'
p1127
S'Caterina-Flora8.hex'
p1128
sS'path'
p1129
S'caterina'
p1130
sS'unlock_bits'
p1131
S'0x3F'
p1132
ssS'upload'
p1133
(dp1134
S'protocol'
p1135
S'avr109'
p1136
sS'maximum_size'
p1137
S'28672'
p1138
sS'speed'
p1139
S'57600'
p1140
sS'disable_flushing'
p1141
S'true'
p1142
ssS'name'
p1143
S'Adafruit Flora'
p1144
saa(lp1145
S'gemma'
p1146
a(dp1147
S'build'
p1148
(dp1149
S'core'
p1150
S'arduino:arduino'
p1151
sS'mcu'
p1152
S'attiny85'
p1153
sS'f_cpu'
p1154
S'8000000L'
p1155
sS'variant'
p1156
S'tiny8'
p1157
ssS'bootloader'
p1158
(dp1159
S'low_fuses'
p1160
S'0xF1'
p1161
sS'extended_fuses'
p1162
S'0xFE'
p1163
sS'high_fuses'
p1164
S'0xD5'
p1165
ssS'upload'
p1166
(dp1167
S'maximum_size'
p1168
S'5310'
p1169
ssS'name'
p1170
S'Adafruit Gemma 8MHz'
p1171
saa(lp1172
S'trinket3'
p1173
a(dp1174
S'build'
p1175
(dp1176
S'core'
p1177
S'arduino:arduino'
p1178
sS'mcu'
p1179
S'attiny85'
p1180
sS'f_cpu'
p1181
S'8000000L'
p1182
sS'variant'
p1183
S'tiny8'
p1184
ssS'bootloader'
p1185
(dp1186
S'low_fuses'
p1187
S'0xF1'
p1188
sS'extended_fuses'
p1189
S'0xFE'
p1190
sS'high_fuses'
p1191
S'0xD5'
p1192
ssS'upload'
p1193
(dp1194
S'maximum_size'
p1195
S'5310'
p1196
ssS'name'
p1197
S'Adafruit Trinket 8MHz'
p1198
saa(lp1199
S'trinket5'
p1200
a(dp1201
S'build'
p1202
(dp1203
S'core'
p1204
S'arduino:arduino'
p1205
sS'mcu'
p1206
S'attiny85'
p1207
sS'f_cpu'
p1208
S'16000000L'
p1209
sS'variant'
p1210
S'tiny8'
p1211
ssS'bootloader'
p1212
(dp1213
S'low_fuses'
p1214
S'0xF1'
p1215
sS'extended_fuses'
p1216
S'0xFE'
p1217
sS'high_fuses'
p1218
S'0xD5'
p1219
ssS'upload'
p1220
(dp1221
S'maximum_size'
p1222
S'5310'
p1223
ssS'name'
p1224
S'Adafruit Trinket 16MHz'
p1225
saatp1226
Rp1227
(dp1228
S'default'
p1229
S'uno'
p1230
sbtp1231
a(S'cc'
p1232
S'/Applications/Arduino.app/Contents/Resources/Java/hardware/tools/avr/bin/avr-gcc'
p1233
tp1234
a.